target datalayout = "e-m:e-p270:32:32-p271:32:32-p272:64:64-i64:64-i128:128-f80:128-n8:16:32:64-S128"
target triple = "x86_64-unknown-linux-gnu"

%struct.rcu_head = type { ptr, ptr }
%struct.RAMBlock = type { %struct.rcu_head, ptr, ptr, ptr, i64, i64, i64, ptr, i32, [256 x i8], %struct.anon.14, %struct.anon.15, i32, i64, i64, ptr, ptr, ptr, i8, i64 }
%struct.anon.14 = type { ptr, ptr }
%struct.anon.15 = type { ptr }

; Function Attrs: nounwind sspstrong uwtable
define dso_local i64 @qemu_ram_addr_from_host(ptr noundef %ptr) #0 {
entry:
  %retval = alloca i64, align 8
  %ptr.addr = alloca ptr, align 8
  %block = alloca ptr, align 8
  %offset = alloca i64, align 8
  store ptr %ptr, ptr %ptr.addr, align 8
  %0 = load ptr, ptr %ptr.addr, align 8
  %call = call ptr @qemu_ram_block_from_host(ptr noundef %0, i1 noundef zeroext false, ptr noundef %offset)
  store ptr %call, ptr %block, align 8
  %1 = load ptr, ptr %block, align 8
  %tobool = icmp ne ptr %1, null
  br i1 %tobool, label %if.end, label %if.then

if.then:                                          ; preds = %entry
  store i64 -1, ptr %retval, align 8
  br label %return

if.end:                                           ; preds = %entry
  %2 = load ptr, ptr %block, align 8
  %offset1 = getelementptr inbounds %struct.RAMBlock, ptr %2, i32 0, i32 4
  %3 = load i64, ptr %offset1, align 8
  %4 = load i64, ptr %offset, align 8
  %add = add i64 %3, %4
  store i64 %add, ptr %retval, align 8
  br label %return

return:                                           ; preds = %if.end, %if.then
  %5 = load i64, ptr %retval, align 8
  ret i64 %5
}