; Function Attrs: nounwind sspstrong uwtable
define dso_local i64 @qemu_ram_addr_from_host(ptr noundef %ptr) local_unnamed_addr #0 {
entry:
  %offset = alloca i64, align 8
  %call = call ptr @qemu_ram_block_from_host(ptr noundef %ptr, i1 noundef zeroext false, ptr noundef nonnull %offset)
  %tobool.not = icmp eq ptr %call, null
  br i1 %tobool.not, label %return, label %if.end

if.end:                                           ; preds = %entry
  %offset1 = getelementptr inbounds nuw i8, ptr %call, i64 40
  %0 = load i64, ptr %offset1, align 8
  %1 = load i64, ptr %offset, align 8
  %add = add i64 %1, %0
  br label %return

return:                                           ; preds = %entry, %if.end
  %retval.0 = phi i64 [ %add, %if.end ], [ -1, %entry ]
  ret i64 %retval.0
}